target datalayout = "e-m:e-p270:32:32-p271:32:32-p272:64:64-i64:64-i128:128-f80:128-n8:16:32:64-S128"
target triple = "x86_64-pc-linux-gnu"

%class.mpfx_manager = type <{ i32, i32, i32, [4 x i8], %class.svector, i32, i8, [3 x i8], %class.id_gen, %class.svector, %class.svector, %class.svector, %class.svector, %class.mpfx, [4 x i8] }>
%class.id_gen = type { i32, %class.svector }
%class.svector = type { %class.vector }
%class.vector = type { ptr }
%class.mpfx = type { i32 }

; Function Attrs: mustprogress nounwind uwtable
define linkonce_odr hidden noundef ptr @_ZNK6vectorIjLb0EjE4dataEv(ptr noundef nonnull align 8 dereferenceable(8) %0) #5 comdat align 2 {
  %2 = alloca ptr, align 8
  store ptr %0, ptr %2, align 8, !tbaa !30
  %3 = load ptr, ptr %2, align 8
  %4 = getelementptr inbounds nuw %class.vector, ptr %3, i32 0, i32 0
  %5 = load ptr, ptr %4, align 8, !tbaa !34
  ret ptr %5
}

; Function Attrs: inlinehint mustprogress nounwind uwtable
define linkonce_odr hidden noundef zeroext i1 @_Z15is_power_of_twoj(i32 noundef %0) #6 comdat {
  %2 = alloca i32, align 4
  store i32 %0, ptr %2, align 4, !tbaa !8
  %3 = load i32, ptr %2, align 4, !tbaa !8
  %4 = load i32, ptr %2, align 4, !tbaa !8
  %5 = sub i32 %4, 1
  %6 = and i32 %3, %5
  %7 = icmp ne i32 %6, 0
  br i1 %7, label %11, label %8

8:                                                ; preds = %1
  %9 = load i32, ptr %2, align 4, !tbaa !8
  %10 = icmp ne i32 %9, 0
  br label %11

11:                                               ; preds = %8, %1
  %12 = phi i1 [ false, %1 ], [ %10, %8 ]
  ret i1 %12
}

; Function Attrs: mustprogress uwtable
define linkonce_odr hidden noundef ptr @_ZNK12mpfx_manager5wordsERK4mpfx(ptr noundef nonnull align 8 dereferenceable(85) %0, ptr noundef nonnull align 4 dereferenceable(4) %1) #4 comdat align 2 {
  %3 = alloca ptr, align 8
  %4 = alloca ptr, align 8
  store ptr %0, ptr %3, align 8, !tbaa !3
  store ptr %1, ptr %4, align 8, !tbaa !28
  %5 = load ptr, ptr %3, align 8
  %6 = getelementptr inbounds nuw %class.mpfx_manager, ptr %5, i32 0, i32 4
  %7 = call noundef ptr @_ZNK6vectorIjLb0EjE4dataEv(ptr noundef nonnull align 8 dereferenceable(8) %6)
  %8 = load ptr, ptr %4, align 8, !tbaa !28
  %9 = load i32, ptr %8, align 4
  %10 = lshr i32 %9, 1
  %11 = getelementptr inbounds nuw %class.mpfx_manager, ptr %5, i32 0, i32 2
  %12 = load i32, ptr %11, align 8, !tbaa !20
  %13 = mul i32 %10, %12
  %14 = zext i32 %13 to i64
  %15 = getelementptr inbounds nuw i32, ptr %7, i64 %14
  ret ptr %15
}

; Function Attrs: mustprogress nounwind uwtable
define linkonce_odr hidden noundef zeroext i1 @_ZN12mpfx_manager7is_zeroERK4mpfx(ptr noundef nonnull align 4 dereferenceable(4) %0) #5 comdat align 2 {
  %2 = alloca ptr, align 8
  store ptr %0, ptr %2, align 8, !tbaa !28
  %3 = load ptr, ptr %2, align 8, !tbaa !28
  %4 = load i32, ptr %3, align 4
  %5 = lshr i32 %4, 1
  %6 = icmp eq i32 %5, 0
  ret i1 %6
}

; Function Attrs: mustprogress uwtable
define hidden noundef zeroext i1 @_ZNK12mpfx_manager6is_intERK4mpfx(ptr noundef nonnull align 8 dereferenceable(85) %0, ptr noundef nonnull align 4 dereferenceable(4) %1) #4 align 2 {
  %3 = alloca i1, align 1
  %4 = alloca ptr, align 8
  %5 = alloca ptr, align 8
  %6 = alloca ptr, align 8
  %7 = alloca i32, align 4
  %8 = alloca i32, align 4
  store ptr %0, ptr %4, align 8, !tbaa !3
  store ptr %1, ptr %5, align 8, !tbaa !28
  %9 = load ptr, ptr %4, align 8
  call void @llvm.lifetime.start.p0(i64 8, ptr %6) #3
  %10 = load ptr, ptr %5, align 8, !tbaa !28
  %11 = call noundef ptr @_ZNK12mpfx_manager5wordsERK4mpfx(ptr noundef nonnull align 8 dereferenceable(85) %9, ptr noundef nonnull align 4 dereferenceable(4) %10)
  store ptr %11, ptr %6, align 8, !tbaa !35
  call void @llvm.lifetime.start.p0(i64 4, ptr %7) #3
  store i32 0, ptr %7, align 4, !tbaa !8
  br label %12

12:                                               ; preds = %27, %2
  %13 = load i32, ptr %7, align 4, !tbaa !8
  %14 = getelementptr inbounds nuw %class.mpfx_manager, ptr %9, i32 0, i32 1
  %15 = load i32, ptr %14, align 4, !tbaa !19
  %16 = icmp ult i32 %13, %15
  br i1 %16, label %18, label %17

17:                                               ; preds = %12
  store i32 2, ptr %8, align 4
  br label %30

18:                                               ; preds = %12
  %19 = load ptr, ptr %6, align 8, !tbaa !35
  %20 = load i32, ptr %7, align 4, !tbaa !8
  %21 = zext i32 %20 to i64
  %22 = getelementptr inbounds nuw i32, ptr %19, i64 %21
  %23 = load i32, ptr %22, align 4, !tbaa !8
  %24 = icmp ne i32 %23, 0
  br i1 %24, label %25, label %26

25:                                               ; preds = %18
  store i1 false, ptr %3, align 1
  store i32 1, ptr %8, align 4
  br label %30

26:                                               ; preds = %18
  br label %27

27:                                               ; preds = %26
  %28 = load i32, ptr %7, align 4, !tbaa !8
  %29 = add i32 %28, 1
  store i32 %29, ptr %7, align 4, !tbaa !8
  br label %12, !llvm.loop !40

30:                                               ; preds = %25, %17
  call void @llvm.lifetime.end.p0(i64 4, ptr %7) #3
  %31 = load i32, ptr %8, align 4
  switch i32 %31, label %33 [
    i32 2, label %32
  ]

32:                                               ; preds = %30
  store i1 true, ptr %3, align 1
  store i32 1, ptr %8, align 4
  br label %33

33:                                               ; preds = %32, %30
  call void @llvm.lifetime.end.p0(i64 8, ptr %6) #3
  %34 = load i1, ptr %3, align 1
  ret i1 %34
}

; Function Attrs: mustprogress uwtable
define hidden noundef zeroext i1 @_ZNK12mpfx_manager15is_power_of_twoERK4mpfxRj(ptr noundef nonnull align 8 dereferenceable(85) %0, ptr noundef nonnull align 4 dereferenceable(4) %1, ptr noundef nonnull align 4 dereferenceable(4) %2) #4 align 2 {
  %4 = alloca i1, align 1
  %5 = alloca ptr, align 8
  %6 = alloca ptr, align 8
  %7 = alloca ptr, align 8
  %8 = alloca ptr, align 8
  %9 = alloca i32, align 4
  %10 = alloca i32, align 4
  store ptr %0, ptr %5, align 8, !tbaa !3
  store ptr %1, ptr %6, align 8, !tbaa !28
  store ptr %2, ptr %7, align 8, !tbaa !35
  %11 = load ptr, ptr %5, align 8
  %12 = load ptr, ptr %6, align 8, !tbaa !28
  %13 = call noundef zeroext i1 @_ZNK12mpfx_manager6is_intERK4mpfx(ptr noundef nonnull align 8 dereferenceable(85) %11, ptr noundef nonnull align 4 dereferenceable(4) %12)
  br i1 %13, label %14, label %17

14:                                               ; preds = %3
  %15 = load ptr, ptr %6, align 8, !tbaa !28
  %16 = call noundef zeroext i1 @_ZN12mpfx_manager7is_zeroERK4mpfx(ptr noundef nonnull align 4 dereferenceable(4) %15)
  br i1 %16, label %17, label %18

17:                                               ; preds = %14, %3
  store i1 false, ptr %4, align 1
  br label %78

18:                                               ; preds = %14
  call void @llvm.lifetime.start.p0(i64 8, ptr %8) #3
  %19 = load ptr, ptr %6, align 8, !tbaa !28
  %20 = call noundef ptr @_ZNK12mpfx_manager5wordsERK4mpfx(ptr noundef nonnull align 8 dereferenceable(85) %11, ptr noundef nonnull align 4 dereferenceable(4) %19)
  store ptr %20, ptr %8, align 8, !tbaa !35
  call void @llvm.lifetime.start.p0(i64 4, ptr %9) #3
  %21 = getelementptr inbounds nuw %class.mpfx_manager, ptr %11, i32 0, i32 2
  %22 = load i32, ptr %21, align 8, !tbaa !20
  store i32 %22, ptr %9, align 4, !tbaa !8
  br label %23

23:                                               ; preds = %76, %18
  br label %24

24:                                               ; preds = %23
  %25 = load i32, ptr %9, align 4, !tbaa !8
  %26 = add i32 %25, -1
  store i32 %26, ptr %9, align 4, !tbaa !8
  %27 = load ptr, ptr %8, align 8, !tbaa !35
  %28 = load i32, ptr %9, align 4, !tbaa !8
  %29 = zext i32 %28 to i64
  %30 = getelementptr inbounds nuw i32, ptr %27, i64 %29
  %31 = load i32, ptr %30, align 4, !tbaa !8
  %32 = icmp ne i32 %31, 0
  br i1 %32, label %33, label %76

33:                                               ; preds = %24
  %34 = load ptr, ptr %8, align 8, !tbaa !35
  %35 = load i32, ptr %9, align 4, !tbaa !8
  %36 = zext i32 %35 to i64
  %37 = getelementptr inbounds nuw i32, ptr %34, i64 %36
  %38 = load i32, ptr %37, align 4, !tbaa !8
  %39 = call noundef zeroext i1 @_Z15is_power_of_twoj(i32 noundef %38)
  br i1 %39, label %41, label %40

40:                                               ; preds = %33
  store i1 false, ptr %4, align 1
  store i32 1, ptr %10, align 4
  br label %77

41:                                               ; preds = %33
  %42 = load i32, ptr %9, align 4, !tbaa !8
  %43 = getelementptr inbounds nuw %class.mpfx_manager, ptr %11, i32 0, i32 1
  %44 = load i32, ptr %43, align 4, !tbaa !19
  %45 = sub i32 %42, %44
  %46 = mul i32 %45, 8
  %47 = zext i32 %46 to i64
  %48 = mul i64 %47, 4
  %49 = load ptr, ptr %8, align 8, !tbaa !35
  %50 = load i32, ptr %9, align 4, !tbaa !8
  %51 = zext i32 %50 to i64
  %52 = getelementptr inbounds nuw i32, ptr %49, i64 %51
  %53 = load i32, ptr %52, align 4, !tbaa !8
  %54 = call noundef i32 @_Z4log2j(i32 noundef %53)
  %55 = zext i32 %54 to i64
  %56 = add i64 %48, %55
  %57 = trunc i64 %56 to i32
  %58 = load ptr, ptr %7, align 8, !tbaa !35
  store i32 %57, ptr %58, align 4, !tbaa !8
  br label %59

59:                                               ; preds = %74, %41
  %60 = load i32, ptr %9, align 4, !tbaa !8
  %61 = getelementptr inbounds nuw %class.mpfx_manager, ptr %11, i32 0, i32 1
  %62 = load i32, ptr %61, align 4, !tbaa !19
  %63 = icmp ugt i32 %60, %62
  br i1 %63, label %64, label %75

64:                                               ; preds = %59
  %65 = load i32, ptr %9, align 4, !tbaa !8
  %66 = add i32 %65, -1
  store i32 %66, ptr %9, align 4, !tbaa !8
  %67 = load ptr, ptr %8, align 8, !tbaa !35
  %68 = load i32, ptr %9, align 4, !tbaa !8
  %69 = zext i32 %68 to i64
  %70 = getelementptr inbounds nuw i32, ptr %67, i64 %69
  %71 = load i32, ptr %70, align 4, !tbaa !8
  %72 = icmp ne i32 %71, 0
  br i1 %72, label %73, label %74

73:                                               ; preds = %64
  store i1 false, ptr %4, align 1
  store i32 1, ptr %10, align 4
  br label %77

74:                                               ; preds = %64
  br label %59, !llvm.loop !92

75:                                               ; preds = %59
  store i1 true, ptr %4, align 1
  store i32 1, ptr %10, align 4
  br label %77

76:                                               ; preds = %24
  br label %23, !llvm.loop !93

77:                                               ; preds = %75, %73, %40
  call void @llvm.lifetime.end.p0(i64 4, ptr %9) #3
  call void @llvm.lifetime.end.p0(i64 8, ptr %8) #3
  br label %78

78:                                               ; preds = %77, %17
  %79 = load i1, ptr %4, align 1
  ret i1 %79
}