; Function Attrs: mustprogress uwtable
define hidden noundef zeroext i1 @_ZNK12mpfx_manager15is_power_of_twoERK4mpfxRj(ptr noundef nonnull readonly align 8 captures(none) dereferenceable(85) %0, ptr noundef nonnull readonly align 4 captures(none) dereferenceable(4) %1, ptr noundef nonnull writeonly align 4 captures(none) dereferenceable(4) %2) local_unnamed_addr #3 align 2 {
  %4 = getelementptr inbounds nuw i8, ptr %0, i64 16
  %5 = load ptr, ptr %4, align 8, !tbaa !3
  %6 = load i32, ptr %1, align 4
  %7 = lshr i32 %6, 1
  %8 = getelementptr inbounds nuw i8, ptr %0, i64 8
  %9 = load i32, ptr %8, align 8, !tbaa !19
  %10 = mul i32 %7, %9
  %11 = zext i32 %10 to i64
  %12 = getelementptr inbounds nuw i32, ptr %5, i64 %11
  %13 = getelementptr inbounds nuw i8, ptr %0, i64 4
  %14 = load i32, ptr %13, align 4, !tbaa !18
  %.not910.i = icmp eq i32 %14, 0
  br i1 %.not910.i, label %.loopexit, label %.lr.ph.preheader.i

.lr.ph.preheader.i:                               ; preds = %3
  %wide.trip.count.i = zext i32 %14 to i64
  br label %.lr.ph.i

15:                                               ; preds = %.lr.ph.i
  %indvars.iv.next.i = add nuw nsw i64 %indvars.iv.i, 1
  %exitcond.not.i = icmp eq i64 %indvars.iv.next.i, %wide.trip.count.i
  br i1 %exitcond.not.i, label %.loopexit, label %.lr.ph.i, !llvm.loop !39

.lr.ph.i:                                         ; preds = %15, %.lr.ph.preheader.i
  %indvars.iv.i = phi i64 [ 0, %.lr.ph.preheader.i ], [ %indvars.iv.next.i, %15 ]
  %16 = getelementptr inbounds nuw i32, ptr %12, i64 %indvars.iv.i
  %17 = load i32, ptr %16, align 4, !tbaa !22
  %.not.i = icmp eq i32 %17, 0
  br i1 %.not.i, label %15, label %_ZNK12mpfx_manager6is_intERK4mpfx.exit

.loopexit:                                        ; preds = %15, %3
  %18 = icmp ult i32 %6, 2
  br i1 %18, label %_ZNK12mpfx_manager6is_intERK4mpfx.exit, label %.preheader

.preheader:                                       ; preds = %.loopexit, %.preheader
  %indvars.iv.in = phi i32 [ %indvars.iv, %.preheader ], [ %9, %.loopexit ]
  %.0 = phi i32 [ %19, %.preheader ], [ %9, %.loopexit ]
  %indvars.iv = add i32 %indvars.iv.in, -1
  %19 = add i32 %.0, -1
  %20 = zext i32 %19 to i64
  %21 = getelementptr inbounds nuw i32, ptr %12, i64 %20
  %22 = load i32, ptr %21, align 4, !tbaa !22
  %.not = icmp eq i32 %22, 0
  br i1 %.not, label %.preheader, label %23, !llvm.loop !79

23:                                               ; preds = %.preheader
  %24 = tail call range(i32 1, 33) i32 @llvm.ctpop.i32(i32 %22)
  %25 = icmp eq i32 %24, 1
  br i1 %25, label %26, label %_ZNK12mpfx_manager6is_intERK4mpfx.exit

26:                                               ; preds = %23
  %27 = sub i32 %19, %14
  %28 = shl i32 %27, 5
  %29 = tail call noundef i32 @_Z4log2j(i32 noundef %22)
  %30 = add i32 %29, %28
  store i32 %30, ptr %2, align 4, !tbaa !22
  %31 = load i32, ptr %13, align 4, !tbaa !18
  %32 = zext i32 %indvars.iv to i64
  %33 = zext i32 %31 to i64
  br label %34

34:                                               ; preds = %35, %26
  %indvars.iv26 = phi i64 [ %36, %35 ], [ %32, %26 ]
  %.not31.not = icmp ule i64 %indvars.iv26, %33
  br i1 %.not31.not, label %_ZNK12mpfx_manager6is_intERK4mpfx.exit, label %35

35:                                               ; preds = %34
  %36 = add nsw i64 %indvars.iv26, -1
  %37 = getelementptr inbounds nuw i32, ptr %12, i64 %36
  %38 = load i32, ptr %37, align 4, !tbaa !22
  %.not20 = icmp eq i32 %38, 0
  br i1 %.not20, label %34, label %_ZNK12mpfx_manager6is_intERK4mpfx.exit, !llvm.loop !80

_ZNK12mpfx_manager6is_intERK4mpfx.exit:           ; preds = %.lr.ph.i, %35, %34, %23, %.loopexit
  %.017 = phi i1 [ false, %.loopexit ], [ false, %23 ], [ %.not31.not, %34 ], [ %.not31.not, %35 ], [ false, %.lr.ph.i ]
  ret i1 %.017
}